target datalayout = "e-m:e-p270:32:32-p271:32:32-p272:64:64-i64:64-i128:128-f80:128-n8:16:32:64-S128"
target triple = "x86_64-pc-linux-gnu"

%struct.Mem_Flex_t_ = type { i32, ptr, ptr, i32, i32, i32, ptr, i32, i32 }

@.str.2 = private unnamed_addr constant [61 x i8] c"Flexible memory manager: Chunk size = %d. Chunks used = %d.\0A\00", align 1
@.str.3 = private unnamed_addr constant [60 x i8] c"   Entries used = %d. Memory used = %d. Memory alloc = %d.\0A\00", align 1

; Function Attrs: nounwind uwtable
define void @Mem_FlexStop(ptr noundef %0, i32 noundef %1) #0 {
  %3 = alloca ptr, align 8
  %4 = alloca i32, align 4
  %5 = alloca i32, align 4
  %6 = alloca i32, align 4
  store ptr %0, ptr %3, align 8, !tbaa !27
  store i32 %1, ptr %4, align 4, !tbaa !3
  call void @llvm.lifetime.start.p0(i64 4, ptr %5) #7
  %7 = load ptr, ptr %3, align 8, !tbaa !27
  %8 = icmp eq ptr %7, null
  br i1 %8, label %9, label %10

9:                                                ; preds = %2
  store i32 1, ptr %6, align 4
  br label %85

10:                                               ; preds = %2
  %11 = load i32, ptr %4, align 4, !tbaa !3
  %12 = icmp ne i32 %11, 0
  br i1 %12, label %13, label %31

13:                                               ; preds = %10
  %14 = load ptr, ptr %3, align 8, !tbaa !27
  %15 = getelementptr inbounds nuw %struct.Mem_Flex_t_, ptr %14, i32 0, i32 3
  %16 = load i32, ptr %15, align 8, !tbaa !29
  %17 = load ptr, ptr %3, align 8, !tbaa !27
  %18 = getelementptr inbounds nuw %struct.Mem_Flex_t_, ptr %17, i32 0, i32 5
  %19 = load i32, ptr %18, align 8, !tbaa !31
  %20 = call i32 (ptr, ...) @printf(ptr noundef @.str.2, i32 noundef %16, i32 noundef %19)
  %21 = load ptr, ptr %3, align 8, !tbaa !27
  %22 = getelementptr inbounds nuw %struct.Mem_Flex_t_, ptr %21, i32 0, i32 0
  %23 = load i32, ptr %22, align 8, !tbaa !32
  %24 = load ptr, ptr %3, align 8, !tbaa !27
  %25 = getelementptr inbounds nuw %struct.Mem_Flex_t_, ptr %24, i32 0, i32 7
  %26 = load i32, ptr %25, align 8, !tbaa !33
  %27 = load ptr, ptr %3, align 8, !tbaa !27
  %28 = getelementptr inbounds nuw %struct.Mem_Flex_t_, ptr %27, i32 0, i32 8
  %29 = load i32, ptr %28, align 4, !tbaa !34
  %30 = call i32 (ptr, ...) @printf(ptr noundef @.str.3, i32 noundef %23, i32 noundef %26, i32 noundef %29)
  br label %31

31:                                               ; preds = %13, %10
  store i32 0, ptr %5, align 4, !tbaa !3
  br label %32

32:                                               ; preds = %63, %31
  %33 = load i32, ptr %5, align 4, !tbaa !3
  %34 = load ptr, ptr %3, align 8, !tbaa !27
  %35 = getelementptr inbounds nuw %struct.Mem_Flex_t_, ptr %34, i32 0, i32 5
  %36 = load i32, ptr %35, align 8, !tbaa !31
  %37 = icmp slt i32 %33, %36
  br i1 %37, label %38, label %66

38:                                               ; preds = %32
  %39 = load ptr, ptr %3, align 8, !tbaa !27
  %40 = getelementptr inbounds nuw %struct.Mem_Flex_t_, ptr %39, i32 0, i32 6
  %41 = load ptr, ptr %40, align 8, !tbaa !35
  %42 = load i32, ptr %5, align 4, !tbaa !3
  %43 = sext i32 %42 to i64
  %44 = getelementptr inbounds ptr, ptr %41, i64 %43
  %45 = load ptr, ptr %44, align 8, !tbaa !24
  %46 = icmp ne ptr %45, null
  br i1 %46, label %47, label %61

47:                                               ; preds = %38
  %48 = load ptr, ptr %3, align 8, !tbaa !27
  %49 = getelementptr inbounds nuw %struct.Mem_Flex_t_, ptr %48, i32 0, i32 6
  %50 = load ptr, ptr %49, align 8, !tbaa !35
  %51 = load i32, ptr %5, align 4, !tbaa !3
  %52 = sext i32 %51 to i64
  %53 = getelementptr inbounds ptr, ptr %50, i64 %52
  %54 = load ptr, ptr %53, align 8, !tbaa !24
  call void @free(ptr noundef %54) #7
  %55 = load ptr, ptr %3, align 8, !tbaa !27
  %56 = getelementptr inbounds nuw %struct.Mem_Flex_t_, ptr %55, i32 0, i32 6
  %57 = load ptr, ptr %56, align 8, !tbaa !35
  %58 = load i32, ptr %5, align 4, !tbaa !3
  %59 = sext i32 %58 to i64
  %60 = getelementptr inbounds ptr, ptr %57, i64 %59
  store ptr null, ptr %60, align 8, !tbaa !24
  br label %62

61:                                               ; preds = %38
  br label %62

62:                                               ; preds = %61, %47
  br label %63

63:                                               ; preds = %62
  %64 = load i32, ptr %5, align 4, !tbaa !3
  %65 = add nsw i32 %64, 1
  store i32 %65, ptr %5, align 4, !tbaa !3
  br label %32, !llvm.loop !36

66:                                               ; preds = %32
  %67 = load ptr, ptr %3, align 8, !tbaa !27
  %68 = getelementptr inbounds nuw %struct.Mem_Flex_t_, ptr %67, i32 0, i32 6
  %69 = load ptr, ptr %68, align 8, !tbaa !35
  %70 = icmp ne ptr %69, null
  br i1 %70, label %71, label %77

71:                                               ; preds = %66
  %72 = load ptr, ptr %3, align 8, !tbaa !27
  %73 = getelementptr inbounds nuw %struct.Mem_Flex_t_, ptr %72, i32 0, i32 6
  %74 = load ptr, ptr %73, align 8, !tbaa !35
  call void @free(ptr noundef %74) #7
  %75 = load ptr, ptr %3, align 8, !tbaa !27
  %76 = getelementptr inbounds nuw %struct.Mem_Flex_t_, ptr %75, i32 0, i32 6
  store ptr null, ptr %76, align 8, !tbaa !35
  br label %78

77:                                               ; preds = %66
  br label %78

78:                                               ; preds = %77, %71
  %79 = load ptr, ptr %3, align 8, !tbaa !27
  %80 = icmp ne ptr %79, null
  br i1 %80, label %81, label %83

81:                                               ; preds = %78
  %82 = load ptr, ptr %3, align 8, !tbaa !27
  call void @free(ptr noundef %82) #7
  store ptr null, ptr %3, align 8, !tbaa !27
  br label %84

83:                                               ; preds = %78
  br label %84

84:                                               ; preds = %83, %81
  store i32 0, ptr %6, align 4
  br label %85

85:                                               ; preds = %84, %9
  call void @llvm.lifetime.end.p0(i64 4, ptr %5) #7
  %86 = load i32, ptr %6, align 4
  switch i32 %86, label %88 [
    i32 0, label %87
    i32 1, label %87
  ]

87:                                               ; preds = %85, %85
  ret void

88:                                               ; preds = %85
  unreachable
}

; Function Attrs: nounwind uwtable
define void @Mem_FlexStop2(ptr noundef %0) #0 {
  %2 = alloca ptr, align 8
  store ptr %0, ptr %2, align 8, !tbaa !27
  %3 = load ptr, ptr %2, align 8, !tbaa !27
  call void @Mem_FlexStop(ptr noundef %3, i32 noundef 0)
  ret void
}