; Function Attrs: nounwind uwtable
define void @Mem_FlexStop2(ptr noundef %0) local_unnamed_addr #2 {
  %2 = icmp eq ptr %0, null
  br i1 %2, label %Mem_FlexStop.exit, label %3

3:                                                ; preds = %1
  %4 = getelementptr inbounds nuw i8, ptr %0, i64 32
  %5 = load i32, ptr %4, align 8, !tbaa !22
  %6 = icmp sgt i32 %5, 0
  %7 = getelementptr inbounds nuw i8, ptr %0, i64 40
  %.pre.i = load ptr, ptr %7, align 8, !tbaa !24
  br i1 %6, label %.lr.ph.i, label %._crit_edge.i

.lr.ph.i:                                         ; preds = %3, %15
  %8 = phi i32 [ %16, %15 ], [ %5, %3 ]
  %9 = phi ptr [ %17, %15 ], [ %.pre.i, %3 ]
  %indvars.iv.i = phi i64 [ %indvars.iv.next.i, %15 ], [ 0, %3 ]
  %10 = getelementptr inbounds nuw ptr, ptr %9, i64 %indvars.iv.i
  %11 = load ptr, ptr %10, align 8, !tbaa !19
  %.not24.i = icmp eq ptr %11, null
  br i1 %.not24.i, label %15, label %12

12:                                               ; preds = %.lr.ph.i
  tail call void @free(ptr noundef nonnull %11) #15
  %13 = load ptr, ptr %7, align 8, !tbaa !24
  %14 = getelementptr inbounds nuw ptr, ptr %13, i64 %indvars.iv.i
  store ptr null, ptr %14, align 8, !tbaa !19
  %.pre27.i = load i32, ptr %4, align 8, !tbaa !22
  br label %15

15:                                               ; preds = %12, %.lr.ph.i
  %16 = phi i32 [ %.pre27.i, %12 ], [ %8, %.lr.ph.i ]
  %17 = phi ptr [ %13, %12 ], [ %9, %.lr.ph.i ]
  %indvars.iv.next.i = add nuw nsw i64 %indvars.iv.i, 1
  %18 = sext i32 %16 to i64
  %19 = icmp slt i64 %indvars.iv.next.i, %18
  br i1 %19, label %.lr.ph.i, label %._crit_edge.thread.i, !llvm.loop !25

._crit_edge.i:                                    ; preds = %3
  %.not23.i = icmp eq ptr %.pre.i, null
  br i1 %.not23.i, label %21, label %._crit_edge.thread.i

._crit_edge.thread.i:                             ; preds = %15, %._crit_edge.i
  %20 = phi ptr [ %.pre.i, %._crit_edge.i ], [ %17, %15 ]
  tail call void @free(ptr noundef nonnull %20) #15
  br label %21

21:                                               ; preds = %._crit_edge.thread.i, %._crit_edge.i
  tail call void @free(ptr noundef nonnull %0) #15
  br label %Mem_FlexStop.exit

Mem_FlexStop.exit:                                ; preds = %1, %21
  ret void
}